; Function Attrs: mustprogress uwtable
define ptr @_ZNK3gmx24ReadCheckpointDataHolder14checkpointDataERKNSt7__cxx1112basic_stringIcSt11char_traitsIcESaIcEEE(ptr noundef nonnull align 8 dereferenceable(72) %0, ptr noundef nonnull align 8 dereferenceable(32) %1) local_unnamed_addr #0 align 2 {
  %3 = tail call noundef nonnull align 8 dereferenceable(8) ptr @_ZNKSt3mapINSt7__cxx1112basic_stringIcSt11char_traitsIcESaIcEEEN3gmx17KeyValueTreeValueESt4lessIS5_ESaISt4pairIKS5_S7_EEE2atERSB_(ptr noundef nonnull align 8 dereferenceable(72) %0, ptr noundef nonnull align 8 dereferenceable(32) %1)
  %4 = load ptr, ptr %3, align 8, !tbaa !28
  %.not.i.i.i.i.i.i = icmp eq ptr %4, null
  br i1 %.not.i.i.i.i.i.i, label %17, label %5

5:                                                ; preds = %2
  %6 = load ptr, ptr %4, align 8, !tbaa !4
  %7 = getelementptr inbounds nuw i8, ptr %6, i64 16
  %8 = load ptr, ptr %7, align 8
  %9 = tail call noundef nonnull align 8 dereferenceable(16) ptr %8(ptr noundef nonnull align 8 dereferenceable(8) %4)
  %10 = getelementptr inbounds nuw i8, ptr %9, i64 8
  %11 = load ptr, ptr %10, align 8, !tbaa !66
  %12 = icmp eq ptr %11, @_ZTSN3gmx18KeyValueTreeObjectE
  br i1 %12, label %_ZNK3gmx17KeyValueTreeValue8asObjectEv.exit, label %13

13:                                               ; preds = %5
  %14 = load i8, ptr %11, align 1, !tbaa !35
  %.not.i.i.i.i.i = icmp eq i8 %14, 42
  br i1 %.not.i.i.i.i.i, label %17, label %_ZNK3gmx3Any6isTypeINS_18KeyValueTreeObjectEEEbv.exit.i.i.i

_ZNK3gmx3Any6isTypeINS_18KeyValueTreeObjectEEEbv.exit.i.i.i: ; preds = %13
  %15 = tail call i32 @strcmp(ptr noundef nonnull dereferenceable(1) %11, ptr noundef nonnull dereferenceable(27) @_ZTSN3gmx18KeyValueTreeObjectE) #21
  %16 = icmp eq i32 %15, 0
  br i1 %16, label %_ZNK3gmx17KeyValueTreeValue8asObjectEv.exit, label %17

17:                                               ; preds = %_ZNK3gmx3Any6isTypeINS_18KeyValueTreeObjectEEEbv.exit.i.i.i, %13, %2
  tail call void @_ZN3gmx8internal13assertHandlerEPKcS2_S2_S2_i(ptr noundef nonnull @.str.7, ptr noundef nonnull @.str.8, ptr noundef nonnull @__PRETTY_FUNCTION__._ZZNK3gmx3Any4castINS_18KeyValueTreeObjectEEERKT_vENKUlvE_clEv, ptr noundef nonnull @.str.9, i32 noundef 190) #20
  unreachable

_ZNK3gmx17KeyValueTreeValue8asObjectEv.exit:      ; preds = %5, %_ZNK3gmx3Any6isTypeINS_18KeyValueTreeObjectEEEbv.exit.i.i.i
  %18 = load ptr, ptr %3, align 8, !tbaa !28
  %19 = getelementptr inbounds nuw i8, ptr %18, i64 8
  ret ptr %19
}